((lp0
(lp1
S'/processed_data/PSP_003092_0985/PSP_003092_0985_RED.cal.norm.map.equ.mos.cub'
p2
aS'PSP_003092_0985'
p3
aI6849
aI18426
aI977
aI531
aI0
aI0
aa(lp4
S'/processed_data/PSP_003770_0815/PSP_003770_0815_RED.cal.norm.map.equ.mos.cub'
p5
aS'PSP_003770_0815_RED'
p6
aI6451
aI9851
aI977
aI531
aI0
aI0
aa(lp7
S'/processed_data/PSP_005993_0985/PSP_005993_0985_RED.cal.norm.map.equ.mos.cub'
p8
aS'PSP_005993_0985_RED'
p9
aI13283
aI38234
aI977
aI531
aI0
aI0
aa(lp10
S'/processed_data/PSP_002380_0985/PSP_002380_0985_RED.cal.norm.map.equ.mos.cub'
p11
aS'PSP_002380_0985_RED'
p12
aI8255
aI22316
aI977
aI531
aI41
aI-3
aa(lp13
S'/processed_data/PSP_002868_0985/PSP_002868_0985_RED.cal.norm.map.equ.mos.cub'
p14
aS'PSP_002868_0985_RED'
p15
aI10665
aI26726
aI977
aI531
aI90
aI7
aa(lp16
S'/processed_data/PSP_003158_0985/PSP_003158_0985_RED.cal.norm.map.equ.mos.cub'
p17
aS'PSP_003158_0985_RED'
p18
aI7443
aI19801
aI977
aI531
aI31
aI15
aa(lp19
S'/processed_data/PSP_003237_0985/PSP_003237_0985_RED.cal.norm.map.equ.mos.cub'
p20
aS'PSP_003237_0985_RED'
p21
aI10815
aI32304
aI977
aI531
aI-10
aI21
aa(lp22
S'/processed_data/PSP_003448_0985/PSP_003448_0985_RED.cal.norm.map.equ.mos.cub'
p23
aS'PSP_003448_0985_RED'
p24
aI8048
aI22769
aI977
aI531
aI-17
aI23
aa(lp25
S'/processed_data/PSP_003593_0985/PSP_003593_0985_RED.cal.norm.map.equ.mos.cub'
p26
aS'PSP_003593_0985_RED'
p27
aI10413
aI31912
aI977
aI531
aI-26
aI15
aa(lp28
S'/processed_data/PSP_003804_0985/PSP_003804_0985_RED.cal.norm.map.equ.mos.cub'
p29
aS'PSP_003804_0985_RED'
p30
aI6424
aI16927
aI977
aI531
aI-2
aI16
aa(lp31
S'/processed_data/PSP_004081_0985/PSP_004081_0985_RED.cal.norm.map.equ.mos.cub'
p32
aS'PSP_004081_0985_RED'
p33
aI7635
aI20777
aI977
aI531
aI25
aI10
aa(lp34
S'/processed_data/PSP_004714_0985/PSP_004714_0985_RED.cal.norm.map.equ.mos.cub'
p35
aS'PSP_004714_0985_RED'
p36
aI7342
aI19699
aI977
aI531
aI72
aI87
aa(lp37
S'/processed_data/PSP_004925_0985/PSP_004925_0985_RED.cal.norm.map.equ.mos.cub'
p38
aS'PSP_004925_0985_RED'
p39
aI11922
aI31633
aI977
aI531
aI100
aI125
aa(lp40
S'/processed_data/PSP_005070_0985/PSP_005070_0985_RED.cal.norm.map.equ.mos.cub'
p41
aS'PSP_005070_0985_RED'
p42
aI3895
aI10150
aI977
aI531
aI0
aI0
aa(lp43
S'/processed_data/PSP_005281_0985/PSP_005281_0985_RED.cal.norm.map.equ.mos.cub'
p44
aS'PSP_005281_0985_RED'
p45
aI3736
aI9522
aI977
aI531
aI111
aI201
aa(lp46
S'/processed_data/PSP_005426_0985/PSP_005426_0985_RED.cal.norm.map.equ.mos.cub'
p47
aS'PSP_005426_0985_RED'
p48
aI11883
aI33860
aI977
aI531
aI127
aI212
aa(lp49
S'/processed_data/ESP_011728_0985/ESP_011728_0985_RED.cal.norm.map.equ.mos.cub'
p50
aS'ESP_011728_0985_RED'
p51
aI5995
aI25102
aI977
aI531
aI-285
aI1
aa(lp52
S'/processed_data/ESP_012467_0985/ESP_012467_0985_RED.cal.norm.map.equ.mos.cub'
p53
aS'ESP_012467_0985_RED'
p54
aI3171
aI8271
aI977
aI531
aI50
aI30
aa(lp55
S'/processed_data/ESP_012744_0985/ESP_012744_0985_RED.cal.norm.map.equ.mos.cub'
p56
aS'ESP_012744_0985_RED'
p57
aI5025
aI12632
aI977
aI531
aI78
aI43
aa(lp58
S'/processed_data/ESP_013113_0985/ESP_013113_0985_RED.cal.norm.map.equ.mos.cub'
p59
aS'ESP_013113_0985_RED'
p60
aI9313
aI26950
aI977
aI531
aI45
aI45
aa(lp61
S'/processed_data/ESP_011491_0985/ESP_011491_0985_RED.cal.norm.map.equ.mos.cub'
p62
aS'ESP_011491_0985_RED'
p63
aI7343
aI41751
aI977
aI531
aI0
aI0
aa(lp64
S'/processed_data/ESP_011544_0985/ESP_011544_0985_RED.cal.norm.map.equ.mos.cub'
p65
aS'ESP_011544_0985_RED'
p66
aI7463
aI19288
aI977
aI531
aI40
aI-60
aa(lp67
S'/processed_data/ESP_012256_0985/ESP_012256_0985_RED.cal.norm.map.equ.mos.cub'
p68
aS'ESP_012256_0985_RED'
p69
aI5058
aI13870
aI977
aI531
aI35
aI29
aa(lp70
S'/processed_data/ESP_011729_0985/ESP_011729_0985_RED.cal.norm.map.equ.mos.cub'
p71
aS'ESP_011729_0985_RED'
p72
aI13583
aI24511
aI977
aI531
aI170
aI-80
aa(lp73
S'/processed_data/ESP_011900_0985/ESP_011900_0985_RED.cal.norm.map.equ.mos.cub'
p74
aS'ESP_011900_0985_RED'
p75
aI3787
aI9515
aI977
aI531
aI40
aI-25
aa(lp76
S'/processed_data/ESP_013034_0985/ESP_013034_0985_RED.cal.norm.map.equ.mos.cub'
p77
aS'ESP_013034_0985_RED'
p78
aI8092
aI21602
aI977
aI531
aI70
aI40
aaI16
tp79
.